target datalayout = "e-m:e-p270:32:32-p271:32:32-p272:64:64-i64:64-i128:128-f80:128-n8:16:32:64-S128"
target triple = "x86_64-pc-linux-gnu"

%struct.rb_vm_struct = type { i64, %struct.anon.0, ptr, i64, %struct.ccan_list_head, i32, i8, i64, ptr, [5 x i64], i64, i64, i64, i64, i64, i64, i64, i64, i64, ptr, ptr, ptr, %struct.anon.4, ptr, i32, %struct.ccan_list_head, %union.pthread_mutex_t, i64, i64, i64, i64, i32, %struct.anon.5, ptr, ptr, ptr, ptr, ptr, ptr, ptr, ptr, i64, [1023 x ptr], %struct.anon.6 }
%struct.anon.0 = type { %struct.ccan_list_head, i32, i32, ptr, ptr, %struct.anon.1, %struct.anon.3 }
%struct.anon.1 = type { %union.pthread_mutex_t, ptr, i32, %union.pthread_cond_t, i8 }
%union.pthread_cond_t = type { %struct.__pthread_cond_s }
%struct.__pthread_cond_s = type { %union.__atomic_wide_counter, %union.__atomic_wide_counter, [2 x i32], [2 x i32], i32, i32, [2 x i32] }
%union.__atomic_wide_counter = type { i64 }
%struct.anon.3 = type { %union.pthread_mutex_t, ptr, i8, %union.pthread_cond_t, i32, i32, i32, i32, %struct.ccan_list_head, i32, %struct.ccan_list_head, %struct.ccan_list_head, %struct.ccan_list_head, i8, %union.pthread_cond_t, %union.pthread_cond_t, i8, i32, i32 }
%struct.anon.4 = type { [65 x i64] }
%struct.ccan_list_head = type { %struct.ccan_list_node }
%struct.ccan_list_node = type { ptr, ptr }
%union.pthread_mutex_t = type { %struct.__pthread_mutex_s }
%struct.__pthread_mutex_s = type { i32, i32, i32, i32, i32, i16, i16, %struct.__pthread_internal_list }
%struct.__pthread_internal_list = type { ptr, ptr }
%struct.anon.5 = type { ptr, ptr }
%struct.anon.6 = type { i64, i64, i64, i64 }
%struct.rb_objspace = type { %struct.anon.33, %struct.rb_gc_config, [3 x i8], %struct.anon.19, i32, i64, [5 x %struct.rb_heap_struct], i64, ptr, %struct.anon.34, %struct.mark_stack, i64, %struct.anon.35, ptr, %struct.anon.36, i64, %struct.anon.37, %struct.anon.38, %struct.anon.39, ptr, ptr, i64, ptr, i32, i64 }
%struct.anon.33 = type { i64, i64 }
%struct.rb_gc_config = type { i8 }
%struct.anon.19 = type { i16, [2 x i8] }
%struct.rb_heap_struct = type { i16, i64, i64, i64, i64, i64, i64, i64, i64, ptr, %struct.ccan_list_head, ptr, ptr, i64, ptr, i64, i64 }
%struct.anon.34 = type { i32 }
%struct.mark_stack = type { ptr, ptr, i32, i32, i64, i64 }
%struct.anon.35 = type { ptr, i64, i64, [2 x i64], i64, i64, i64 }
%struct.anon.36 = type { i32, i32, ptr, ptr, i64, i64, double, i64, i64, i64, i64, double, i64, i64, i64, i64, %struct.timespec, i64, %struct.timespec, i64, i64 }
%struct.timespec = type { i64, i64 }
%struct.anon.37 = type { i64, i32, i64, i64, i64, i64, i64, i64, i64 }
%struct.anon.38 = type { [31 x i64], [31 x i64], [31 x i64], [31 x i64], i64, ptr }
%struct.anon.39 = type { i64, i64 }
%struct.gc_mark_func_data_struct = type { ptr, ptr }

@.str = private unnamed_addr constant [8 x i8] c"../gc.c\00", align 1
@ruby_single_main_ractor = external global ptr, align 8
@ruby_current_vm_ptr = external global ptr, align 8
@.str.32 = private unnamed_addr constant [70 x i8] c"rb_objspace_reachable_objects_from() is not supported while during GC\00", align 1

; Function Attrs: inlinehint nounwind sspstrong willreturn memory(none) uwtable
define internal zeroext i1 @RB_IMMEDIATE_P(i64 noundef %0) #7 {
  %2 = alloca i64, align 8
  store i64 %0, ptr %2, align 8, !tbaa !18
  %3 = load i64, ptr %2, align 8, !tbaa !18
  %4 = and i64 %3, 7
  %5 = icmp ne i64 %4, 0
  ret i1 %5
}

; Function Attrs: inlinehint nounwind sspstrong uwtable
define internal zeroext i1 @rb_multi_ractor_p() #2 {
  %1 = alloca i1, align 1
  %2 = load ptr, ptr @ruby_single_main_ractor, align 8, !tbaa !16
  %3 = icmp ne ptr %2, null
  %4 = xor i1 %3, true
  %5 = xor i1 %4, true
  %6 = zext i1 %5 to i32
  %7 = sext i32 %6 to i64
  %8 = call i64 @llvm.expect.i64(i64 %7, i64 1)
  %9 = icmp ne i64 %8, 0
  br i1 %9, label %10, label %11

10:                                               ; preds = %0
  store i1 false, ptr %1, align 1
  br label %12

11:                                               ; preds = %0
  store i1 true, ptr %1, align 1
  br label %12

12:                                               ; preds = %11, %10
  %13 = load i1, ptr %1, align 1
  ret i1 %13
}

; Function Attrs: inlinehint nounwind sspstrong uwtable
define internal void @rb_vm_lock_leave(ptr noundef %0, ptr noundef %1, i32 noundef %2) #2 {
  %4 = alloca ptr, align 8
  %5 = alloca ptr, align 8
  %6 = alloca i32, align 4
  store ptr %0, ptr %4, align 8, !tbaa !11
  store ptr %1, ptr %5, align 8, !tbaa !14
  store i32 %2, ptr %6, align 4, !tbaa !7
  %7 = call zeroext i1 @rb_multi_ractor_p()
  br i1 %7, label %8, label %10

8:                                                ; preds = %3
  %9 = load ptr, ptr %4, align 8, !tbaa !11
  call void @rb_vm_lock_leave_body(ptr noundef %9)
  br label %10

10:                                               ; preds = %8, %3
  ret void
}

; Function Attrs: inlinehint nounwind sspstrong uwtable
define internal ptr @rb_current_vm() #2 {
  %1 = load ptr, ptr @ruby_current_vm_ptr, align 8, !tbaa !74
  ret ptr %1
}

; Function Attrs: inlinehint nounwind sspstrong willreturn memory(none) uwtable
define internal zeroext i1 @RB_SPECIAL_CONST_P(i64 noundef %0) #7 {
  %2 = alloca i64, align 8
  store i64 %0, ptr %2, align 8, !tbaa !18
  %3 = load i64, ptr %2, align 8, !tbaa !18
  %4 = icmp eq i64 %3, 0
  br i1 %4, label %8, label %5

5:                                                ; preds = %1
  %6 = load i64, ptr %2, align 8, !tbaa !18
  %7 = call zeroext i1 @RB_IMMEDIATE_P(i64 noundef %6) #42
  br label %8

8:                                                ; preds = %5, %1
  %9 = phi i1 [ true, %1 ], [ %7, %5 ]
  ret i1 %9
}

; Function Attrs: nounwind sspstrong uwtable
define internal zeroext i1 @rb_gc_impl_during_gc_p(ptr noundef %0) #0 {
  %2 = alloca ptr, align 8
  %3 = alloca ptr, align 8
  store ptr %0, ptr %2, align 8, !tbaa !76
  call void @llvm.lifetime.start.p0(i64 8, ptr %3) #6
  %4 = load ptr, ptr %2, align 8, !tbaa !76
  store ptr %4, ptr %3, align 8, !tbaa !125
  %5 = load ptr, ptr %3, align 8, !tbaa !125
  %6 = getelementptr inbounds nuw %struct.rb_objspace, ptr %5, i32 0, i32 3
  %7 = load i16, ptr %6, align 4
  %8 = lshr i16 %7, 5
  %9 = and i16 %8, 1
  %10 = zext i16 %9 to i32
  %11 = icmp ne i32 %10, 0
  call void @llvm.lifetime.end.p0(i64 8, ptr %3) #6
  ret i1 %11
}

; Function Attrs: nounwind sspstrong uwtable
define dso_local ptr @rb_gc_get_objspace() #0 {
  %1 = call ptr @rb_current_vm()
  %2 = getelementptr inbounds nuw %struct.rb_vm_struct, ptr %1, i32 0, i32 32
  %3 = getelementptr inbounds nuw %struct.anon.5, ptr %2, i32 0, i32 0
  %4 = load ptr, ptr %3, align 8, !tbaa !55
  ret ptr %4
}

; Function Attrs: inlinehint nounwind sspstrong uwtable
define internal void @rb_vm_lock_enter(ptr noundef %0, ptr noundef %1, i32 noundef %2) #2 {
  %4 = alloca ptr, align 8
  %5 = alloca ptr, align 8
  %6 = alloca i32, align 4
  store ptr %0, ptr %4, align 8, !tbaa !11
  store ptr %1, ptr %5, align 8, !tbaa !14
  store i32 %2, ptr %6, align 4, !tbaa !7
  %7 = call zeroext i1 @rb_multi_ractor_p()
  br i1 %7, label %8, label %10

8:                                                ; preds = %3
  %9 = load ptr, ptr %4, align 8, !tbaa !11
  call void @rb_vm_lock_enter_body(ptr noundef %9)
  br label %10

10:                                               ; preds = %8, %3
  ret void
}

; Function Attrs: nounwind sspstrong uwtable
define dso_local void @rb_objspace_reachable_objects_from(i64 noundef %0, ptr noundef %1, ptr noundef %2) #0 {
  %4 = alloca i64, align 8
  %5 = alloca ptr, align 8
  %6 = alloca ptr, align 8
  %7 = alloca i32, align 4
  %8 = alloca ptr, align 8
  %9 = alloca ptr, align 8
  %10 = alloca %struct.gc_mark_func_data_struct, align 8
  store i64 %0, ptr %4, align 8, !tbaa !18
  store ptr %1, ptr %5, align 8, !tbaa !76
  store ptr %2, ptr %6, align 8, !tbaa !76
  call void @llvm.lifetime.start.p0(i64 4, ptr %7) #6
  call void @rb_vm_lock_enter(ptr noundef %7, ptr noundef @.str, i32 noundef 4034)
  %11 = call ptr @rb_gc_get_objspace()
  %12 = call zeroext i1 @rb_gc_impl_during_gc_p(ptr noundef %11)
  br i1 %12, label %13, label %14

13:                                               ; preds = %3
  call void (ptr, ...) @rb_bug(ptr noundef @.str.32) #45
  unreachable

14:                                               ; preds = %3
  %15 = load i64, ptr %4, align 8, !tbaa !18
  %16 = call zeroext i1 @RB_SPECIAL_CONST_P(i64 noundef %15) #42
  br i1 %16, label %36, label %17

17:                                               ; preds = %14
  call void @llvm.lifetime.start.p0(i64 8, ptr %8) #6
  %18 = call ptr @rb_current_vm()
  store ptr %18, ptr %8, align 8, !tbaa !74
  call void @llvm.lifetime.start.p0(i64 8, ptr %9) #6
  %19 = load ptr, ptr %8, align 8, !tbaa !74
  %20 = getelementptr inbounds nuw %struct.rb_vm_struct, ptr %19, i32 0, i32 32
  %21 = getelementptr inbounds nuw %struct.anon.5, ptr %20, i32 0, i32 1
  %22 = load ptr, ptr %21, align 8, !tbaa !272
  store ptr %22, ptr %9, align 8, !tbaa !273
  call void @llvm.lifetime.start.p0(i64 16, ptr %10) #6
  %23 = getelementptr inbounds nuw %struct.gc_mark_func_data_struct, ptr %10, i32 0, i32 0
  %24 = load ptr, ptr %6, align 8, !tbaa !76
  store ptr %24, ptr %23, align 8, !tbaa !276
  %25 = getelementptr inbounds nuw %struct.gc_mark_func_data_struct, ptr %10, i32 0, i32 1
  %26 = load ptr, ptr %5, align 8, !tbaa !76
  store ptr %26, ptr %25, align 8, !tbaa !274
  %27 = load ptr, ptr %8, align 8, !tbaa !74
  %28 = getelementptr inbounds nuw %struct.rb_vm_struct, ptr %27, i32 0, i32 32
  %29 = getelementptr inbounds nuw %struct.anon.5, ptr %28, i32 0, i32 1
  store ptr %10, ptr %29, align 8, !tbaa !272
  %30 = call ptr @rb_gc_get_objspace()
  %31 = load i64, ptr %4, align 8, !tbaa !18
  call void @rb_gc_mark_children(ptr noundef %30, i64 noundef %31)
  %32 = load ptr, ptr %9, align 8, !tbaa !273
  %33 = load ptr, ptr %8, align 8, !tbaa !74
  %34 = getelementptr inbounds nuw %struct.rb_vm_struct, ptr %33, i32 0, i32 32
  %35 = getelementptr inbounds nuw %struct.anon.5, ptr %34, i32 0, i32 1
  store ptr %32, ptr %35, align 8, !tbaa !272
  call void @llvm.lifetime.end.p0(i64 16, ptr %10) #6
  call void @llvm.lifetime.end.p0(i64 8, ptr %9) #6
  call void @llvm.lifetime.end.p0(i64 8, ptr %8) #6
  br label %36

36:                                               ; preds = %17, %14
  call void @rb_vm_lock_leave(ptr noundef %7, ptr noundef @.str, i32 noundef 4051)
  call void @llvm.lifetime.end.p0(i64 4, ptr %7) #6
  ret void
}