; Function Attrs: nounwind sspstrong uwtable
define dso_local void @rb_objspace_reachable_objects_from(i64 noundef %0, ptr noundef %1, ptr noundef %2) local_unnamed_addr #0 {
  %4 = alloca i32, align 4
  %5 = alloca %struct.gc_mark_func_data_struct, align 8
  call void @llvm.lifetime.start.p0(i64 4, ptr nonnull %4) #7
  %6 = load ptr, ptr @ruby_single_main_ractor, align 8, !tbaa !7
  %.not.i.i = icmp eq ptr %6, null
  br i1 %.not.i.i, label %7, label %rb_vm_lock_enter.exit

7:                                                ; preds = %3
  call void @rb_vm_lock_enter_body(ptr noundef nonnull %4) #7
  br label %rb_vm_lock_enter.exit

rb_vm_lock_enter.exit:                            ; preds = %3, %7
  %8 = load ptr, ptr @ruby_current_vm_ptr, align 8, !tbaa !62
  %9 = getelementptr inbounds nuw i8, ptr %8, i64 1296
  %10 = load ptr, ptr %9, align 8, !tbaa !63
  %11 = getelementptr i8, ptr %10, i64 20
  %.val = load i16, ptr %11, align 4
  %12 = and i16 %.val, 32
  %.not = icmp eq i16 %12, 0
  br i1 %.not, label %14, label %13

13:                                               ; preds = %rb_vm_lock_enter.exit
  call void (ptr, ...) @rb_bug(ptr noundef nonnull @.str.32) #61
  unreachable

14:                                               ; preds = %rb_vm_lock_enter.exit
  %15 = icmp eq i64 %0, 0
  %16 = and i64 %0, 7
  %17 = icmp ne i64 %16, 0
  %18 = or i1 %15, %17
  br i1 %18, label %23, label %19

19:                                               ; preds = %14
  %20 = getelementptr inbounds nuw i8, ptr %8, i64 1304
  %21 = load ptr, ptr %20, align 8, !tbaa !279
  call void @llvm.lifetime.start.p0(i64 16, ptr nonnull %5) #7
  store ptr %2, ptr %5, align 8, !tbaa !282
  %22 = getelementptr inbounds nuw i8, ptr %5, i64 8
  store ptr %1, ptr %22, align 8, !tbaa !280
  store ptr %5, ptr %20, align 8, !tbaa !279
  call void @rb_gc_mark_children(ptr noundef nonnull %10, i64 noundef %0)
  store ptr %21, ptr %20, align 8, !tbaa !279
  call void @llvm.lifetime.end.p0(i64 16, ptr nonnull %5) #7
  br label %23

23:                                               ; preds = %19, %14
  %24 = load ptr, ptr @ruby_single_main_ractor, align 8, !tbaa !7
  %.not.i.i7 = icmp eq ptr %24, null
  br i1 %.not.i.i7, label %25, label %rb_vm_lock_leave.exit

25:                                               ; preds = %23
  call void @rb_vm_lock_leave_body(ptr noundef nonnull %4) #7
  br label %rb_vm_lock_leave.exit

rb_vm_lock_leave.exit:                            ; preds = %23, %25
  call void @llvm.lifetime.end.p0(i64 4, ptr nonnull %4) #7
  ret void
}